target datalayout = "e-m:e-p270:32:32-p271:32:32-p272:64:64-i64:64-i128:128-f80:128-n8:16:32:64-S128"
target triple = "x86_64-pc-linux-gnu"

%"class.pxrInternal_v0_24__pxrReserved__::ArchRegex::_Impl" = type { %struct.re_pattern_buffer }
%struct.re_pattern_buffer = type { ptr, i64, i64, i64, ptr, ptr, i64, i8 }

@_ZTIi = external constant ptr

; Function Attrs: mustprogress uwtable
define void @_ZN32pxrInternal_v0_24__pxrReserved__9ArchRegex5_ImplC2ERKNSt7__cxx1112basic_stringIcSt11char_traitsIcESaIcEEEjPS7_(ptr noundef nonnull align 8 dereferenceable(64) %0, ptr noundef nonnull align 8 dereferenceable(32) %1, i32 noundef %2, ptr noundef %3) unnamed_addr #0 align 2 {
  %5 = alloca ptr, align 8
  %6 = alloca ptr, align 8
  %7 = alloca i32, align 4
  %8 = alloca ptr, align 8
  %9 = alloca i32, align 4
  %10 = alloca i32, align 4
  %11 = alloca [256 x i8], align 16
  store ptr %0, ptr %5, align 8
  store ptr %1, ptr %6, align 8
  store i32 %2, ptr %7, align 4
  store ptr %3, ptr %8, align 8
  %12 = load ptr, ptr %5, align 8
  %13 = load i32, ptr %7, align 4
  %14 = and i32 %13, 1
  %15 = icmp ne i32 %14, 0
  %16 = select i1 %15, i32 2, i32 0
  %17 = or i32 5, %16
  store i32 %17, ptr %9, align 4
  %18 = getelementptr inbounds nuw %"class.pxrInternal_v0_24__pxrReserved__::ArchRegex::_Impl", ptr %12, i32 0, i32 0
  %19 = load ptr, ptr %6, align 8
  %20 = call noundef ptr @_ZNKSt7__cxx1112basic_stringIcSt11char_traitsIcESaIcEE5c_strEv(ptr noundef nonnull align 8 dereferenceable(32) %19) #10
  %21 = load i32, ptr %9, align 4
  %22 = call i32 @regcomp(ptr noundef %18, ptr noundef %20, i32 noundef %21)
  store i32 %22, ptr %10, align 4
  %23 = load i32, ptr %10, align 4
  %24 = icmp ne i32 %23, 0
  br i1 %24, label %25, label %36

25:                                               ; preds = %4
  %26 = getelementptr inbounds [256 x i8], ptr %11, i64 0, i64 0
  store i8 0, ptr %26, align 16
  %27 = load i32, ptr %10, align 4
  %28 = getelementptr inbounds nuw %"class.pxrInternal_v0_24__pxrReserved__::ArchRegex::_Impl", ptr %12, i32 0, i32 0
  %29 = getelementptr inbounds [256 x i8], ptr %11, i64 0, i64 0
  %30 = call i64 @regerror(i32 noundef %27, ptr noundef %28, ptr noundef %29, i64 noundef 256)
  %31 = getelementptr inbounds [256 x i8], ptr %11, i64 0, i64 0
  %32 = load ptr, ptr %8, align 8
  %33 = call noundef nonnull align 8 dereferenceable(32) ptr @_ZNSt7__cxx1112basic_stringIcSt11char_traitsIcESaIcEEaSEPKc(ptr noundef nonnull align 8 dereferenceable(32) %32, ptr noundef %31)
  %34 = call ptr @__cxa_allocate_exception(i64 4) #10
  %35 = load i32, ptr %10, align 4
  store i32 %35, ptr %34, align 16
  call void @__cxa_throw(ptr %34, ptr @_ZTIi, ptr null) #11
  unreachable

36:                                               ; preds = %4
  ret void
}