; Function Attrs: mustprogress uwtable
define void @_ZN32pxrInternal_v0_24__pxrReserved__9ArchRegex5_ImplC2ERKNSt7__cxx1112basic_stringIcSt11char_traitsIcESaIcEEEjPS7_(ptr noundef nonnull align 8 dereferenceable(64) %0, ptr noundef nonnull align 8 dereferenceable(32) %1, i32 noundef %2, ptr noundef %3) unnamed_addr #0 align 2 {
  %5 = alloca [256 x i8], align 16
  %6 = shl i32 %2, 1
  %7 = and i32 %6, 2
  %8 = or disjoint i32 %7, 5
  %9 = tail call noundef ptr @_ZNKSt7__cxx1112basic_stringIcSt11char_traitsIcESaIcEE5c_strEv(ptr noundef nonnull align 8 dereferenceable(32) %1) #13
  %10 = tail call i32 @regcomp(ptr noundef nonnull %0, ptr noundef %9, i32 noundef %8)
  %.not = icmp eq i32 %10, 0
  br i1 %.not, label %15, label %11

11:                                               ; preds = %4
  store i8 0, ptr %5, align 16
  %12 = call i64 @regerror(i32 noundef %10, ptr noundef nonnull %0, ptr noundef nonnull %5, i64 noundef 256)
  %13 = call noundef nonnull align 8 dereferenceable(32) ptr @_ZNSt7__cxx1112basic_stringIcSt11char_traitsIcESaIcEEaSEPKc(ptr noundef nonnull align 8 dereferenceable(32) %3, ptr noundef nonnull %5)
  %14 = call ptr @__cxa_allocate_exception(i64 4) #13
  store i32 %10, ptr %14, align 16
  call void @__cxa_throw(ptr nonnull %14, ptr nonnull @_ZTIi, ptr null) #14
  unreachable

15:                                               ; preds = %4
  ret void
}